; Function Attrs: mustprogress nofree norecurse nosync nounwind willreturn memory(read, inaccessiblemem: none) uwtable
define dso_local noundef nonnull ptr @_ZNK4llvm19AArch64RegisterInfo23getTLSCallPreservedMaskEv(ptr nocapture noundef nonnull readonly align 8 dereferenceable(320) %0) local_unnamed_addr #1 align 2 {
  %2 = getelementptr inbounds nuw i8, ptr %0, i64 312
  %3 = load ptr, ptr %2, align 8
  %4 = getelementptr inbounds nuw i8, ptr %3, i64 44
  %5 = load i32, ptr %4, align 4
  %6 = and i32 %5, -9
  %spec.select.i.i = icmp eq i32 %6, 1
  br i1 %spec.select.i.i, label %8, label %7

7:                                                ; preds = %1
  switch i32 %5, label %_ZNK4llvm6Triple10isOSDarwinEv.exit [
    i32 26, label %8
    i32 5, label %8
    i32 27, label %8
    i32 29, label %8
    i32 30, label %8
  ]

8:                                                ; preds = %7, %7, %7, %7, %7, %1
  br label %_ZNK4llvm6Triple10isOSDarwinEv.exit

_ZNK4llvm6Triple10isOSDarwinEv.exit:              ; preds = %7, %8
  %9 = phi ptr [ @_ZN4llvmL30CSR_Darwin_AArch64_TLS_RegMaskE, %8 ], [ @_ZN4llvmL27CSR_AArch64_TLS_ELF_RegMaskE, %7 ]
  ret ptr %9
}